; ModuleID = 'source-C-CXX/9/1935.c'
source_filename = "source-C-CXX/9/1935.c"
target datalayout = "e-m:e-p270:32:32-p271:32:32-p272:64:64-i64:64-f80:128-n8:16:32:64-S128"
target triple = "x86_64-pc-linux-gnu"

@n = dso_local global i32 0, align 4
@dao = dso_local global [26 x i32] zeroinitializer, align 16
@.str = private unnamed_addr constant [3 x i8] c"%d\00", align 1

; Function Attrs: mustprogress nofree norecurse nosync nounwind readnone sspstrong uwtable willreturn
define dso_local i32 @max(i32 %0, i32 %1) local_unnamed_addr #0 {
  %3 = icmp sgt i32 %0, %1
  %4 = select i1 %3, i32 %0, i32 %1
  ret i32 %4
}

; Function Attrs: nofree nosync nounwind readonly sspstrong uwtable
define dso_local i32 @fly(i32 %0, i32 %1) local_unnamed_addr #1 {
  %3 = load i32, i32* @n, align 4, !tbaa !5
  %4 = icmp eq i32 %3, %1
  br i1 %4, label %16, label %5

5:                                                ; preds = %2
  %6 = sext i32 %1 to i64
  br label %7

7:                                                ; preds = %5, %12
  %8 = phi i64 [ %6, %5 ], [ %13, %12 ]
  %9 = getelementptr inbounds [26 x i32], [26 x i32]* @dao, i64 0, i64 %8
  %10 = load i32, i32* %9, align 4, !tbaa !5
  %11 = icmp sgt i32 %10, %0
  br i1 %11, label %12, label %18

12:                                               ; preds = %7
  %13 = add nsw i64 %8, 1
  %14 = trunc i64 %13 to i32
  %15 = icmp eq i32 %3, %14
  br i1 %15, label %16, label %7

16:                                               ; preds = %12, %2, %18
  %17 = phi i32 [ %25, %18 ], [ 0, %2 ], [ 0, %12 ]
  ret i32 %17

18:                                               ; preds = %7
  %19 = trunc i64 %8 to i32
  %20 = add nsw i32 %19, 1
  %21 = tail call i32 @fly(i32 %0, i32 %20)
  %22 = tail call i32 @fly(i32 %10, i32 %20)
  %23 = add nsw i32 %22, 1
  %24 = icmp sgt i32 %21, %23
  %25 = select i1 %24, i32 %21, i32 %23
  br label %16
}

; Function Attrs: nofree nounwind sspstrong uwtable
define dso_local i32 @main() local_unnamed_addr #2 {
  %1 = tail call i32 (i8*, ...) @__isoc99_scanf(i8* getelementptr inbounds ([3 x i8], [3 x i8]* @.str, i64 0, i64 0), i32* nonnull @n)
  %2 = load i32, i32* @n, align 4, !tbaa !5
  %3 = icmp sgt i32 %2, 0
  br i1 %3, label %4, label %12

4:                                                ; preds = %0, %4
  %5 = phi i64 [ %8, %4 ], [ 0, %0 ]
  %6 = getelementptr inbounds [26 x i32], [26 x i32]* @dao, i64 0, i64 %5
  %7 = tail call i32 (i8*, ...) @__isoc99_scanf(i8* getelementptr inbounds ([3 x i8], [3 x i8]* @.str, i64 0, i64 0), i32* nonnull %6)
  %8 = add nuw nsw i64 %5, 1
  %9 = load i32, i32* @n, align 4, !tbaa !5
  %10 = sext i32 %9 to i64
  %11 = icmp slt i64 %8, %10
  br i1 %11, label %4, label %12, !llvm.loop !9

12:                                               ; preds = %4, %0
  %13 = tail call i32 @fly(i32 99999, i32 0)
  %14 = tail call i32 (i8*, ...) @printf(i8* nonnull dereferenceable(1) getelementptr inbounds ([3 x i8], [3 x i8]* @.str, i64 0, i64 0), i32 %13)
  ret i32 0
}

; Function Attrs: nofree nounwind
declare noundef i32 @__isoc99_scanf(i8* nocapture noundef readonly, ...) local_unnamed_addr #3

; Function Attrs: nofree nounwind
declare noundef i32 @printf(i8* nocapture noundef readonly, ...) local_unnamed_addr #3


!llvm.module.flags = !{!0, !1, !2, !3}
!llvm.ident = !{!4}

!0 = !{i32 1, !"wchar_size", i32 4}
!1 = !{i32 7, !"PIC Level", i32 2}
!2 = !{i32 7, !"PIE Level", i32 2}
!3 = !{i32 7, !"uwtable", i32 1}
!4 = !{!"clang version 13.0.0"}
!5 = !{!6, !6, i64 0}
!6 = !{!"int", !7, i64 0}
!7 = !{!"omnipotent char", !8, i64 0}
!8 = !{!"Simple C/C++ TBAA"}
!9 = distinct !{!9, !10}
!10 = !{!"llvm.loop.mustprogress"}
